target datalayout = "e-m:e-p270:32:32-p271:32:32-p272:64:64-i64:64-i128:128-f80:128-n8:16:32:64-S128"
target triple = "x86_64-pc-linux-gnu"

%struct.H5VL_loc_params_t = type { i32, i32, %union.anon.0 }
%union.anon.0 = type { %struct.H5VL_loc_by_idx }
%struct.H5VL_loc_by_idx = type { ptr, i32, i32, i64, i64 }
%struct.H5VL_attr_get_args_t = type { i32, %union.anon }
%union.anon = type { %struct.H5VL_attr_get_name_args_t }
%struct.H5VL_attr_get_name_args_t = type { %struct.H5VL_loc_params_t, i64, ptr, ptr }

@H5_libinit_g = external global i8, align 1
@H5_libterm_g = external global i8, align 1
@.str = private unnamed_addr constant [97 x i8] c"generated/home/dtcxzyw/WorkSpace/Projects/compilers/llvm-opt-benchmark/bench/hdf5/hdf5/src/H5A.c\00", align 1
@H5E_FUNC_g = external global i64, align 8
@H5E_CANTINIT_g = external global i64, align 8
@.str.1 = private unnamed_addr constant [30 x i8] c"library initialization failed\00", align 1
@H5E_CANTSET_g = external global i64, align 8
@.str.2 = private unnamed_addr constant [22 x i8] c"can't set API context\00", align 1
@H5E_ATTR_g = external global i64, align 8
@H5E_ARGS_g = external global i64, align 8
@H5E_BADTYPE_g = external global i64, align 8
@.str.37 = private unnamed_addr constant [17 x i8] c"not an attribute\00", align 1
@H5P_LST_DATASET_XFER_ID_g = external global i64, align 8
@H5E_CANTGET_g = external global i64, align 8
@__func__.H5Aget_name = private unnamed_addr constant [12 x i8] c"H5Aget_name\00", align 1
@H5E_BADVALUE_g = external global i64, align 8
@.str.41 = private unnamed_addr constant [43 x i8] c"buf cannot be NULL if buf_size is non-zero\00", align 1
@.str.42 = private unnamed_addr constant [29 x i8] c"unable to get attribute name\00", align 1

; Function Attrs: nounwind uwtable
define i64 @H5Aget_name(i64 noundef %0, i64 noundef %1, ptr noundef %2) #0 {
  %4 = alloca i64, align 8
  %5 = alloca i64, align 8
  %6 = alloca ptr, align 8
  %7 = alloca ptr, align 8
  %8 = alloca %struct.H5VL_attr_get_args_t, align 8
  %9 = alloca i64, align 8
  %10 = alloca i64, align 8
  %11 = alloca i8, align 1
  %12 = alloca i8, align 1
  store i64 %0, ptr %4, align 8
  store i64 %1, ptr %5, align 8
  store ptr %2, ptr %6, align 8
  store ptr null, ptr %7, align 8
  store i64 0, ptr %9, align 8
  store i64 -1, ptr %10, align 8
  store i8 0, ptr %11, align 1
  store i8 0, ptr %12, align 1
  %13 = load i8, ptr @H5_libinit_g, align 1
  %14 = trunc i8 %13 to i1
  br i1 %14, label %19, label %15

15:                                               ; preds = %3
  %16 = load i8, ptr @H5_libterm_g, align 1
  %17 = trunc i8 %16 to i1
  %18 = xor i1 %17, true
  br label %19

19:                                               ; preds = %15, %3
  %20 = phi i1 [ false, %3 ], [ %18, %15 ]
  %21 = xor i1 %20, true
  %22 = xor i1 %21, true
  %23 = zext i1 %22 to i32
  %24 = sext i32 %23 to i64
  %25 = icmp ne i64 %24, 0
  br i1 %25, label %26, label %50

26:                                               ; preds = %19
  %27 = call i32 @H5_init_library()
  %28 = icmp slt i32 %27, 0
  %29 = xor i1 %28, true
  %30 = xor i1 %29, true
  %31 = zext i1 %30 to i32
  %32 = sext i32 %31 to i64
  %33 = icmp ne i64 %32, 0
  br i1 %33, label %34, label %49

34:                                               ; preds = %26
  br label %35

35:                                               ; preds = %34
  br label %36

36:                                               ; preds = %35
  br label %37

37:                                               ; preds = %36
  %38 = load i64, ptr @H5E_FUNC_g, align 8
  %39 = load i64, ptr @H5E_CANTINIT_g, align 8
  %40 = call i32 (ptr, ptr, i32, i64, i64, ptr, ...) @H5E_printf_stack(ptr noundef @.str, ptr noundef @__func__.H5Aget_name, i32 noundef 1234, i64 noundef %38, i64 noundef %39, ptr noundef @.str.1)
  br label %41

41:                                               ; preds = %37
  store i8 1, ptr %12, align 1
  %42 = load i8, ptr %12, align 1
  %43 = trunc i8 %42 to i1
  %44 = zext i1 %43 to i8
  store i8 %44, ptr %12, align 1
  br label %45

45:                                               ; preds = %41
  br label %46

46:                                               ; preds = %45
  store i64 -1, ptr %10, align 8
  br label %154

47:                                               ; No predecessors!
  br label %48

48:                                               ; preds = %47
  br label %49

49:                                               ; preds = %48, %26
  br label %50

50:                                               ; preds = %49, %19
  %51 = call i32 @H5CX_push()
  %52 = icmp slt i32 %51, 0
  %53 = xor i1 %52, true
  %54 = xor i1 %53, true
  %55 = zext i1 %54 to i32
  %56 = sext i32 %55 to i64
  %57 = icmp ne i64 %56, 0
  br i1 %57, label %58, label %73

58:                                               ; preds = %50
  br label %59

59:                                               ; preds = %58
  br label %60

60:                                               ; preds = %59
  br label %61

61:                                               ; preds = %60
  %62 = load i64, ptr @H5E_FUNC_g, align 8
  %63 = load i64, ptr @H5E_CANTSET_g, align 8
  %64 = call i32 (ptr, ptr, i32, i64, i64, ptr, ...) @H5E_printf_stack(ptr noundef @.str, ptr noundef @__func__.H5Aget_name, i32 noundef 1234, i64 noundef %62, i64 noundef %63, ptr noundef @.str.2)
  br label %65

65:                                               ; preds = %61
  store i8 1, ptr %12, align 1
  %66 = load i8, ptr %12, align 1
  %67 = trunc i8 %66 to i1
  %68 = zext i1 %67 to i8
  store i8 %68, ptr %12, align 1
  br label %69

69:                                               ; preds = %65
  br label %70

70:                                               ; preds = %69
  store i64 -1, ptr %10, align 8
  br label %154

71:                                               ; No predecessors!
  br label %72

72:                                               ; preds = %71
  br label %74

73:                                               ; preds = %50
  store i8 1, ptr %11, align 1
  br label %74

74:                                               ; preds = %73, %72
  %75 = call i32 @H5E_clear_stack()
  %76 = load i64, ptr %4, align 8
  %77 = call ptr @H5I_object_verify(i64 noundef %76, i32 noundef 7)
  store ptr %77, ptr %7, align 8
  %78 = icmp eq ptr null, %77
  br i1 %78, label %79, label %94

79:                                               ; preds = %74
  br label %80

80:                                               ; preds = %79
  br label %81

81:                                               ; preds = %80
  br label %82

82:                                               ; preds = %81
  %83 = load i64, ptr @H5E_ARGS_g, align 8
  %84 = load i64, ptr @H5E_BADTYPE_g, align 8
  %85 = call i32 (ptr, ptr, i32, i64, i64, ptr, ...) @H5E_printf_stack(ptr noundef @.str, ptr noundef @__func__.H5Aget_name, i32 noundef 1238, i64 noundef %83, i64 noundef %84, ptr noundef @.str.37)
  br label %86

86:                                               ; preds = %82
  store i8 1, ptr %12, align 1
  %87 = load i8, ptr %12, align 1
  %88 = trunc i8 %87 to i1
  %89 = zext i1 %88 to i8
  store i8 %89, ptr %12, align 1
  br label %90

90:                                               ; preds = %86
  br label %91

91:                                               ; preds = %90
  store i64 -1, ptr %10, align 8
  br label %154

92:                                               ; No predecessors!
  br label %93

93:                                               ; preds = %92
  br label %94

94:                                               ; preds = %93, %74
  %95 = load ptr, ptr %6, align 8
  %96 = icmp ne ptr %95, null
  br i1 %96, label %115, label %97

97:                                               ; preds = %94
  %98 = load i64, ptr %5, align 8
  %99 = icmp ne i64 %98, 0
  br i1 %99, label %100, label %115

100:                                              ; preds = %97
  br label %101

101:                                              ; preds = %100
  br label %102

102:                                              ; preds = %101
  br label %103

103:                                              ; preds = %102
  %104 = load i64, ptr @H5E_ARGS_g, align 8
  %105 = load i64, ptr @H5E_BADVALUE_g, align 8
  %106 = call i32 (ptr, ptr, i32, i64, i64, ptr, ...) @H5E_printf_stack(ptr noundef @.str, ptr noundef @__func__.H5Aget_name, i32 noundef 1240, i64 noundef %104, i64 noundef %105, ptr noundef @.str.41)
  br label %107

107:                                              ; preds = %103
  store i8 1, ptr %12, align 1
  %108 = load i8, ptr %12, align 1
  %109 = trunc i8 %108 to i1
  %110 = zext i1 %109 to i8
  store i8 %110, ptr %12, align 1
  br label %111

111:                                              ; preds = %107
  br label %112

112:                                              ; preds = %111
  store i64 -1, ptr %10, align 8
  br label %154

113:                                              ; No predecessors!
  br label %114

114:                                              ; preds = %113
  br label %115

115:                                              ; preds = %114, %97, %94
  %116 = getelementptr inbounds %struct.H5VL_attr_get_args_t, ptr %8, i32 0, i32 0
  store i32 2, ptr %116, align 8
  %117 = getelementptr inbounds %struct.H5VL_attr_get_args_t, ptr %8, i32 0, i32 1
  %118 = getelementptr inbounds %struct.H5VL_attr_get_name_args_t, ptr %117, i32 0, i32 0
  %119 = getelementptr inbounds %struct.H5VL_loc_params_t, ptr %118, i32 0, i32 1
  store i32 0, ptr %119, align 4
  %120 = load i64, ptr %4, align 8
  %121 = call i32 @H5I_get_type(i64 noundef %120)
  %122 = getelementptr inbounds %struct.H5VL_attr_get_args_t, ptr %8, i32 0, i32 1
  %123 = getelementptr inbounds %struct.H5VL_attr_get_name_args_t, ptr %122, i32 0, i32 0
  %124 = getelementptr inbounds %struct.H5VL_loc_params_t, ptr %123, i32 0, i32 0
  store i32 %121, ptr %124, align 8
  %125 = load i64, ptr %5, align 8
  %126 = getelementptr inbounds %struct.H5VL_attr_get_args_t, ptr %8, i32 0, i32 1
  %127 = getelementptr inbounds %struct.H5VL_attr_get_name_args_t, ptr %126, i32 0, i32 1
  store i64 %125, ptr %127, align 8
  %128 = load ptr, ptr %6, align 8
  %129 = getelementptr inbounds %struct.H5VL_attr_get_args_t, ptr %8, i32 0, i32 1
  %130 = getelementptr inbounds %struct.H5VL_attr_get_name_args_t, ptr %129, i32 0, i32 2
  store ptr %128, ptr %130, align 8
  %131 = getelementptr inbounds %struct.H5VL_attr_get_args_t, ptr %8, i32 0, i32 1
  %132 = getelementptr inbounds %struct.H5VL_attr_get_name_args_t, ptr %131, i32 0, i32 3
  store ptr %9, ptr %132, align 8
  %133 = load ptr, ptr %7, align 8
  %134 = load i64, ptr @H5P_LST_DATASET_XFER_ID_g, align 8
  %135 = call i32 @H5VL_attr_get(ptr noundef %133, ptr noundef %8, i64 noundef %134, ptr noundef null)
  %136 = icmp slt i32 %135, 0
  br i1 %136, label %137, label %152

137:                                              ; preds = %115
  br label %138

138:                                              ; preds = %137
  br label %139

139:                                              ; preds = %138
  br label %140

140:                                              ; preds = %139
  %141 = load i64, ptr @H5E_ATTR_g, align 8
  %142 = load i64, ptr @H5E_CANTGET_g, align 8
  %143 = call i32 (ptr, ptr, i32, i64, i64, ptr, ...) @H5E_printf_stack(ptr noundef @.str, ptr noundef @__func__.H5Aget_name, i32 noundef 1252, i64 noundef %141, i64 noundef %142, ptr noundef @.str.42)
  br label %144

144:                                              ; preds = %140
  store i8 1, ptr %12, align 1
  %145 = load i8, ptr %12, align 1
  %146 = trunc i8 %145 to i1
  %147 = zext i1 %146 to i8
  store i8 %147, ptr %12, align 1
  br label %148

148:                                              ; preds = %144
  br label %149

149:                                              ; preds = %148
  store i64 -1, ptr %10, align 8
  br label %154

150:                                              ; No predecessors!
  br label %151

151:                                              ; preds = %150
  br label %152

152:                                              ; preds = %151, %115
  %153 = load i64, ptr %9, align 8
  store i64 %153, ptr %10, align 8
  br label %154

154:                                              ; preds = %152, %149, %112, %91, %70, %46
  %155 = load i8, ptr %11, align 1
  %156 = trunc i8 %155 to i1
  %157 = xor i1 %156, true
  %158 = xor i1 %157, true
  %159 = zext i1 %158 to i32
  %160 = sext i32 %159 to i64
  %161 = icmp ne i64 %160, 0
  br i1 %161, label %162, label %164

162:                                              ; preds = %154
  %163 = call i32 @H5CX_pop(i1 noundef zeroext true)
  store i8 0, ptr %11, align 1
  br label %164

164:                                              ; preds = %162, %154
  %165 = load i8, ptr %12, align 1
  %166 = trunc i8 %165 to i1
  %167 = xor i1 %166, true
  %168 = xor i1 %167, true
  %169 = zext i1 %168 to i32
  %170 = sext i32 %169 to i64
  %171 = icmp ne i64 %170, 0
  br i1 %171, label %172, label %174

172:                                              ; preds = %164
  %173 = call i32 @H5E_dump_api_stack()
  br label %174

174:                                              ; preds = %172, %164
  %175 = load i64, ptr %10, align 8
  ret i64 %175
}