; Function Attrs: nounwind uwtable
define i64 @H5Aget_name(i64 noundef %0, i64 noundef %1, ptr noundef %2) local_unnamed_addr #0 {
  %4 = alloca %struct.H5VL_attr_get_args_t, align 8
  %5 = alloca i64, align 8
  store i64 0, ptr %5, align 8
  %6 = load i8, ptr @H5_libinit_g, align 1
  %7 = trunc i8 %6 to i1
  %8 = load i8, ptr @H5_libterm_g, align 1
  %9 = trunc i8 %8 to i1
  %10 = select i1 %7, i1 true, i1 %9
  br i1 %10, label %18, label %11

11:                                               ; preds = %3
  %12 = tail call i32 @H5_init_library() #4
  %13 = icmp slt i32 %12, 0
  br i1 %13, label %14, label %18

14:                                               ; preds = %11
  %15 = load i64, ptr @H5E_FUNC_g, align 8
  %16 = load i64, ptr @H5E_CANTINIT_g, align 8
  %17 = tail call i32 (ptr, ptr, i32, i64, i64, ptr, ...) @H5E_printf_stack(ptr noundef nonnull @.str, ptr noundef nonnull @__func__.H5Aget_name, i32 noundef 1234, i64 noundef %15, i64 noundef %16, ptr noundef nonnull @.str.1) #4
  br label %.thread26

18:                                               ; preds = %11, %3
  %19 = tail call i32 @H5CX_push() #4
  %20 = icmp slt i32 %19, 0
  br i1 %20, label %21, label %25

21:                                               ; preds = %18
  %22 = load i64, ptr @H5E_FUNC_g, align 8
  %23 = load i64, ptr @H5E_CANTSET_g, align 8
  %24 = tail call i32 (ptr, ptr, i32, i64, i64, ptr, ...) @H5E_printf_stack(ptr noundef nonnull @.str, ptr noundef nonnull @__func__.H5Aget_name, i32 noundef 1234, i64 noundef %22, i64 noundef %23, ptr noundef nonnull @.str.2) #4
  br label %.thread26

25:                                               ; preds = %18
  %26 = tail call i32 @H5E_clear_stack() #4
  %27 = tail call ptr @H5I_object_verify(i64 noundef %0, i32 noundef 7) #4
  %28 = icmp eq ptr %27, null
  br i1 %28, label %29, label %33

29:                                               ; preds = %25
  %30 = load i64, ptr @H5E_ARGS_g, align 8
  %31 = load i64, ptr @H5E_BADTYPE_g, align 8
  %32 = tail call i32 (ptr, ptr, i32, i64, i64, ptr, ...) @H5E_printf_stack(ptr noundef nonnull @.str, ptr noundef nonnull @__func__.H5Aget_name, i32 noundef 1238, i64 noundef %30, i64 noundef %31, ptr noundef nonnull @.str.37) #4
  br label %.thread32

33:                                               ; preds = %25
  %34 = icmp eq ptr %2, null
  %35 = icmp ne i64 %1, 0
  %or.cond = and i1 %35, %34
  br i1 %or.cond, label %36, label %40

36:                                               ; preds = %33
  %37 = load i64, ptr @H5E_ARGS_g, align 8
  %38 = load i64, ptr @H5E_BADVALUE_g, align 8
  %39 = tail call i32 (ptr, ptr, i32, i64, i64, ptr, ...) @H5E_printf_stack(ptr noundef nonnull @.str, ptr noundef nonnull @__func__.H5Aget_name, i32 noundef 1240, i64 noundef %37, i64 noundef %38, ptr noundef nonnull @.str.41) #4
  br label %.thread32

40:                                               ; preds = %33
  store i32 2, ptr %4, align 8
  %41 = getelementptr inbounds i8, ptr %4, i64 8
  %42 = getelementptr inbounds i8, ptr %4, i64 12
  store i32 0, ptr %42, align 4
  %43 = tail call i32 @H5I_get_type(i64 noundef %0) #4
  store i32 %43, ptr %41, align 8
  %44 = getelementptr inbounds i8, ptr %4, i64 48
  store i64 %1, ptr %44, align 8
  %45 = getelementptr inbounds i8, ptr %4, i64 56
  store ptr %2, ptr %45, align 8
  %46 = getelementptr inbounds i8, ptr %4, i64 64
  store ptr %5, ptr %46, align 8
  %47 = load i64, ptr @H5P_LST_DATASET_XFER_ID_g, align 8
  %48 = call i32 @H5VL_attr_get(ptr noundef nonnull %27, ptr noundef nonnull %4, i64 noundef %47, ptr noundef null) #4
  %49 = icmp slt i32 %48, 0
  br i1 %49, label %50, label %55

50:                                               ; preds = %40
  %51 = load i64, ptr @H5E_ATTR_g, align 8
  %52 = load i64, ptr @H5E_CANTGET_g, align 8
  %53 = call i32 (ptr, ptr, i32, i64, i64, ptr, ...) @H5E_printf_stack(ptr noundef nonnull @.str, ptr noundef nonnull @__func__.H5Aget_name, i32 noundef 1252, i64 noundef %51, i64 noundef %52, ptr noundef nonnull @.str.42) #4
  br label %.thread32

.thread32:                                        ; preds = %50, %36, %29
  %54 = call i32 @H5CX_pop(i1 noundef zeroext true) #4
  br label %.thread26

55:                                               ; preds = %40
  %56 = load i64, ptr %5, align 8
  %57 = call i32 @H5CX_pop(i1 noundef zeroext true) #4
  br label %59

.thread26:                                        ; preds = %21, %14, %.thread32
  %58 = call i32 @H5E_dump_api_stack() #4
  br label %59

59:                                               ; preds = %55, %.thread26
  %.0162129 = phi i64 [ -1, %.thread26 ], [ %56, %55 ]
  ret i64 %.0162129
}